target datalayout = "e-m:e-p270:32:32-p271:32:32-p272:64:64-i64:64-i128:128-f80:128-n8:16:32:64-S128"
target triple = "x86_64-pc-linux-gnu"

%struct.lv_color_t = type { i8, i8, i8 }
%struct.lv_draw_dsc_base_t = type { ptr, i32, i32, i32, ptr, i64, ptr }
%struct.lv_point_t = type { i32, i32 }
%struct.lv_draw_label_dsc_t = type { %struct.lv_draw_dsc_base_t, ptr, i32, ptr, i32, i32, %struct.lv_color_t, %struct.lv_color_t, %struct.lv_color_t, i32, i32, i32, i32, i32, i8, i32, i32, i32, i8, ptr }
%struct.lv_area_t = type { i32, i32, i32, i32 }
%struct.lv_font_glyph_dsc_t = type { ptr, i16, i16, i16, i16, i16, i32, i8, %union.anon, ptr }
%union.anon = type { ptr }

@lv_text_unicode_to_encoded = external constant ptr, align 8

; Function Attrs: inlinehint nounwind uwtable
define internal zeroext i1 @lv_text_is_marker(i32 noundef %0) #1 {
  %2 = alloca i1, align 1
  %3 = alloca i32, align 4
  store i32 %0, ptr %3, align 4, !tbaa !46
  %4 = load i32, ptr %3, align 4, !tbaa !46
  %5 = icmp ult i32 %4, 32
  br i1 %5, label %6, label %7

6:                                                ; preds = %1
  store i1 true, ptr %2, align 1
  br label %56

7:                                                ; preds = %1
  %8 = load i32, ptr %3, align 4, !tbaa !46
  %9 = icmp eq i32 %8, 1564
  br i1 %9, label %10, label %11

10:                                               ; preds = %7
  store i1 true, ptr %2, align 1
  br label %56

11:                                               ; preds = %7
  %12 = load i32, ptr %3, align 4, !tbaa !46
  %13 = icmp eq i32 %12, 4447
  br i1 %13, label %14, label %15

14:                                               ; preds = %11
  store i1 true, ptr %2, align 1
  br label %56

15:                                               ; preds = %11
  %16 = load i32, ptr %3, align 4, !tbaa !46
  %17 = icmp eq i32 %16, 4448
  br i1 %17, label %18, label %19

18:                                               ; preds = %15
  store i1 true, ptr %2, align 1
  br label %56

19:                                               ; preds = %15
  %20 = load i32, ptr %3, align 4, !tbaa !46
  %21 = icmp uge i32 %20, 6155
  br i1 %21, label %22, label %26

22:                                               ; preds = %19
  %23 = load i32, ptr %3, align 4, !tbaa !46
  %24 = icmp ule i32 %23, 6158
  br i1 %24, label %25, label %26

25:                                               ; preds = %22
  store i1 true, ptr %2, align 1
  br label %56

26:                                               ; preds = %22, %19
  %27 = load i32, ptr %3, align 4, !tbaa !46
  %28 = icmp uge i32 %27, 8203
  br i1 %28, label %29, label %33

29:                                               ; preds = %26
  %30 = load i32, ptr %3, align 4, !tbaa !46
  %31 = icmp ule i32 %30, 8207
  br i1 %31, label %32, label %33

32:                                               ; preds = %29
  store i1 true, ptr %2, align 1
  br label %56

33:                                               ; preds = %29, %26
  %34 = load i32, ptr %3, align 4, !tbaa !46
  %35 = icmp uge i32 %34, 8232
  br i1 %35, label %36, label %40

36:                                               ; preds = %33
  %37 = load i32, ptr %3, align 4, !tbaa !46
  %38 = icmp ule i32 %37, 8239
  br i1 %38, label %39, label %40

39:                                               ; preds = %36
  store i1 true, ptr %2, align 1
  br label %56

40:                                               ; preds = %36, %33
  %41 = load i32, ptr %3, align 4, !tbaa !46
  %42 = icmp uge i32 %41, 8287
  br i1 %42, label %43, label %47

43:                                               ; preds = %40
  %44 = load i32, ptr %3, align 4, !tbaa !46
  %45 = icmp ule i32 %44, 8303
  br i1 %45, label %46, label %47

46:                                               ; preds = %43
  store i1 true, ptr %2, align 1
  br label %56

47:                                               ; preds = %43, %40
  %48 = load i32, ptr %3, align 4, !tbaa !46
  %49 = icmp eq i32 %48, 65279
  br i1 %49, label %50, label %51

50:                                               ; preds = %47
  store i1 true, ptr %2, align 1
  br label %56

51:                                               ; preds = %47
  %52 = load i32, ptr %3, align 4, !tbaa !46
  %53 = icmp eq i32 %52, 63743
  br i1 %53, label %54, label %55

54:                                               ; preds = %51
  store i1 true, ptr %2, align 1
  br label %56

55:                                               ; preds = %51
  store i1 false, ptr %2, align 1
  br label %56

56:                                               ; preds = %55, %54, %50, %46, %39, %32, %25, %18, %14, %10, %6
  %57 = load i1, ptr %2, align 1
  ret i1 %57
}

; Function Attrs: nounwind uwtable
define void @lv_draw_character(ptr noundef %0, ptr noundef %1, ptr noundef %2, i32 noundef %3) #0 {
  %5 = alloca ptr, align 8
  %6 = alloca ptr, align 8
  %7 = alloca ptr, align 8
  %8 = alloca i32, align 4
  %9 = alloca %struct.lv_font_glyph_dsc_t, align 8
  %10 = alloca %struct.lv_area_t, align 4
  %11 = alloca [2 x i32], align 4
  %12 = alloca ptr, align 8
  store ptr %0, ptr %5, align 8, !tbaa !44
  store ptr %1, ptr %6, align 8, !tbaa !3
  store ptr %2, ptr %7, align 8, !tbaa !3
  store i32 %3, ptr %8, align 4, !tbaa !46
  %13 = load ptr, ptr %6, align 8, !tbaa !3
  %14 = getelementptr inbounds nuw %struct.lv_draw_label_dsc_t, ptr %13, i32 0, i32 14
  %15 = load i8, ptr %14, align 8, !tbaa !25
  %16 = zext i8 %15 to i32
  %17 = icmp sle i32 %16, 2
  br i1 %17, label %18, label %19

18:                                               ; preds = %4
  br label %85

19:                                               ; preds = %4
  %20 = load ptr, ptr %6, align 8, !tbaa !3
  %21 = getelementptr inbounds nuw %struct.lv_draw_label_dsc_t, ptr %20, i32 0, i32 3
  %22 = load ptr, ptr %21, align 8, !tbaa !30
  %23 = icmp eq ptr %22, null
  br i1 %23, label %24, label %27

24:                                               ; preds = %19
  br label %25

25:                                               ; preds = %24
  br label %26

26:                                               ; preds = %25
  br label %85

27:                                               ; preds = %19
  %28 = load i32, ptr %8, align 4, !tbaa !46
  %29 = call zeroext i1 @lv_text_is_marker(i32 noundef %28)
  br i1 %29, label %30, label %31

30:                                               ; preds = %27
  br label %85

31:                                               ; preds = %27
  call void @llvm.lifetime.start.p0(i64 48, ptr %9) #5
  %32 = load ptr, ptr %6, align 8, !tbaa !3
  %33 = getelementptr inbounds nuw %struct.lv_draw_label_dsc_t, ptr %32, i32 0, i32 3
  %34 = load ptr, ptr %33, align 8, !tbaa !30
  %35 = load i32, ptr %8, align 4, !tbaa !46
  %36 = call zeroext i1 @lv_font_get_glyph_dsc(ptr noundef %34, ptr noundef %9, i32 noundef %35, i32 noundef 0)
  call void @llvm.lifetime.start.p0(i64 16, ptr %10) #5
  %37 = load ptr, ptr %7, align 8, !tbaa !3
  %38 = getelementptr inbounds nuw %struct.lv_point_t, ptr %37, i32 0, i32 0
  %39 = load i32, ptr %38, align 4, !tbaa !47
  %40 = getelementptr inbounds nuw %struct.lv_area_t, ptr %10, i32 0, i32 0
  store i32 %39, ptr %40, align 4, !tbaa !48
  %41 = load ptr, ptr %7, align 8, !tbaa !3
  %42 = getelementptr inbounds nuw %struct.lv_point_t, ptr %41, i32 0, i32 1
  %43 = load i32, ptr %42, align 4, !tbaa !49
  %44 = getelementptr inbounds nuw %struct.lv_area_t, ptr %10, i32 0, i32 1
  store i32 %43, ptr %44, align 4, !tbaa !50
  %45 = getelementptr inbounds nuw %struct.lv_area_t, ptr %10, i32 0, i32 0
  %46 = load i32, ptr %45, align 4, !tbaa !48
  %47 = getelementptr inbounds nuw %struct.lv_font_glyph_dsc_t, ptr %9, i32 0, i32 1
  %48 = load i16, ptr %47, align 8, !tbaa !51
  %49 = zext i16 %48 to i32
  %50 = add nsw i32 %46, %49
  %51 = getelementptr inbounds nuw %struct.lv_area_t, ptr %10, i32 0, i32 2
  store i32 %50, ptr %51, align 4, !tbaa !55
  %52 = getelementptr inbounds nuw %struct.lv_area_t, ptr %10, i32 0, i32 1
  %53 = load i32, ptr %52, align 4, !tbaa !50
  %54 = getelementptr inbounds nuw %struct.lv_font_glyph_dsc_t, ptr %9, i32 0, i32 0
  %55 = load ptr, ptr %54, align 8, !tbaa !56
  %56 = icmp ne ptr %55, null
  br i1 %56, label %57, label %60

57:                                               ; preds = %31
  %58 = getelementptr inbounds nuw %struct.lv_font_glyph_dsc_t, ptr %9, i32 0, i32 0
  %59 = load ptr, ptr %58, align 8, !tbaa !56
  br label %64

60:                                               ; preds = %31
  %61 = load ptr, ptr %6, align 8, !tbaa !3
  %62 = getelementptr inbounds nuw %struct.lv_draw_label_dsc_t, ptr %61, i32 0, i32 3
  %63 = load ptr, ptr %62, align 8, !tbaa !30
  br label %64

64:                                               ; preds = %60, %57
  %65 = phi ptr [ %59, %57 ], [ %63, %60 ]
  %66 = call i32 @lv_font_get_line_height(ptr noundef %65)
  %67 = add nsw i32 %53, %66
  %68 = getelementptr inbounds nuw %struct.lv_area_t, ptr %10, i32 0, i32 3
  store i32 %67, ptr %68, align 4, !tbaa !57
  call void @llvm.lifetime.start.p0(i64 8, ptr %11) #5
  %69 = load ptr, ptr @lv_text_unicode_to_encoded, align 8, !tbaa !3
  %70 = load i32, ptr %8, align 4, !tbaa !46
  %71 = call i32 %69(i32 noundef %70)
  %72 = getelementptr inbounds [2 x i32], ptr %11, i64 0, i64 0
  store i32 %71, ptr %72, align 4, !tbaa !46
  %73 = getelementptr inbounds [2 x i32], ptr %11, i64 0, i64 1
  store i32 0, ptr %73, align 4, !tbaa !46
  call void @llvm.lifetime.start.p0(i64 8, ptr %12) #5
  %74 = getelementptr inbounds [2 x i32], ptr %11, i64 0, i64 0
  store ptr %74, ptr %12, align 8, !tbaa !58
  %75 = load ptr, ptr %12, align 8, !tbaa !58
  %76 = load ptr, ptr %6, align 8, !tbaa !3
  %77 = getelementptr inbounds nuw %struct.lv_draw_label_dsc_t, ptr %76, i32 0, i32 1
  store ptr %75, ptr %77, align 8, !tbaa !45
  %78 = load ptr, ptr %6, align 8, !tbaa !3
  %79 = getelementptr inbounds nuw %struct.lv_draw_label_dsc_t, ptr %78, i32 0, i32 18
  %80 = load i8, ptr %79, align 8
  %81 = and i8 %80, -65
  %82 = or i8 %81, 64
  store i8 %82, ptr %79, align 8
  %83 = load ptr, ptr %5, align 8, !tbaa !44
  %84 = load ptr, ptr %6, align 8, !tbaa !3
  call void @lv_draw_label(ptr noundef %83, ptr noundef %84, ptr noundef %10)
  call void @llvm.lifetime.end.p0(i64 8, ptr %12) #5
  call void @llvm.lifetime.end.p0(i64 8, ptr %11) #5
  call void @llvm.lifetime.end.p0(i64 16, ptr %10) #5
  call void @llvm.lifetime.end.p0(i64 48, ptr %9) #5
  br label %85

85:                                               ; preds = %64, %30, %26, %18
  ret void
}