; Function Attrs: nounwind uwtable
define void @lv_draw_character(ptr noundef %0, ptr noundef %1, ptr noundef readonly captures(none) %2, i32 noundef %3) local_unnamed_addr #0 {
  %5 = alloca %struct.lv_font_glyph_dsc_t, align 8
  %6 = alloca %struct.lv_area_t, align 4
  %7 = alloca [2 x i32], align 4
  %8 = getelementptr inbounds nuw i8, ptr %1, i64 112
  %9 = load i8, ptr %8, align 8, !tbaa !21
  %10 = icmp ult i8 %9, 3
  br i1 %10, label %lv_text_is_marker.exit.thread, label %11

11:                                               ; preds = %4
  %12 = getelementptr inbounds nuw i8, ptr %1, i64 64
  %13 = load ptr, ptr %12, align 8, !tbaa !26
  %14 = icmp eq ptr %13, null
  %15 = icmp ult i32 %3, 32
  %or.cond = or i1 %15, %14
  br i1 %or.cond, label %lv_text_is_marker.exit.thread, label %16

16:                                               ; preds = %11
  switch i32 %3, label %17 [
    i32 1564, label %lv_text_is_marker.exit.thread
    i32 4447, label %lv_text_is_marker.exit.thread
    i32 4448, label %lv_text_is_marker.exit.thread
  ]

17:                                               ; preds = %16
  %18 = add i32 %3, -6155
  %or.cond.i = icmp ult i32 %18, 4
  %19 = add i32 %3, -8203
  %or.cond3.i = icmp ult i32 %19, 5
  %or.cond22.i = or i1 %or.cond.i, %or.cond3.i
  %20 = and i32 %3, -8
  %or.cond5.i = icmp eq i32 %20, 8232
  %or.cond23.i = or i1 %or.cond5.i, %or.cond22.i
  %21 = add i32 %3, -8287
  %or.cond7.i = icmp ult i32 %21, 17
  %or.cond24.i = or i1 %or.cond7.i, %or.cond23.i
  br i1 %or.cond24.i, label %lv_text_is_marker.exit.thread, label %lv_text_is_marker.exit

lv_text_is_marker.exit:                           ; preds = %17
  switch i32 %3, label %22 [
    i32 65279, label %lv_text_is_marker.exit.thread
    i32 63743, label %lv_text_is_marker.exit.thread
  ]

22:                                               ; preds = %lv_text_is_marker.exit
  call void @llvm.lifetime.start.p0(i64 48, ptr nonnull %5) #6
  %23 = call zeroext i1 @lv_font_get_glyph_dsc(ptr noundef nonnull %13, ptr noundef nonnull %5, i32 noundef %3, i32 noundef 0) #6
  call void @llvm.lifetime.start.p0(i64 16, ptr nonnull %6) #6
  %24 = load i32, ptr %2, align 4, !tbaa !39
  store i32 %24, ptr %6, align 4, !tbaa !40
  %25 = getelementptr inbounds nuw i8, ptr %2, i64 4
  %26 = load i32, ptr %25, align 4, !tbaa !41
  %27 = getelementptr inbounds nuw i8, ptr %6, i64 4
  store i32 %26, ptr %27, align 4, !tbaa !42
  %28 = getelementptr inbounds nuw i8, ptr %5, i64 8
  %29 = load i16, ptr %28, align 8, !tbaa !43
  %30 = zext i16 %29 to i32
  %31 = add nsw i32 %24, %30
  %32 = getelementptr inbounds nuw i8, ptr %6, i64 8
  store i32 %31, ptr %32, align 4, !tbaa !47
  %33 = load ptr, ptr %5, align 8, !tbaa !48
  %.not = icmp eq ptr %33, null
  br i1 %.not, label %34, label %36

34:                                               ; preds = %22
  %35 = load ptr, ptr %12, align 8, !tbaa !26
  br label %36

36:                                               ; preds = %22, %34
  %37 = phi ptr [ %35, %34 ], [ %33, %22 ]
  %38 = call i32 @lv_font_get_line_height(ptr noundef %37) #6
  %39 = add nsw i32 %38, %26
  %40 = getelementptr inbounds nuw i8, ptr %6, i64 12
  store i32 %39, ptr %40, align 4, !tbaa !49
  call void @llvm.lifetime.start.p0(i64 8, ptr nonnull %7) #6
  %41 = load ptr, ptr @lv_text_unicode_to_encoded, align 8, !tbaa !50
  %42 = call i32 %41(i32 noundef %3) #6
  store i32 %42, ptr %7, align 4, !tbaa !51
  %43 = getelementptr inbounds nuw i8, ptr %7, i64 4
  store i32 0, ptr %43, align 4, !tbaa !51
  %44 = getelementptr inbounds nuw i8, ptr %1, i64 48
  store ptr %7, ptr %44, align 8, !tbaa !37
  %45 = getelementptr inbounds nuw i8, ptr %1, i64 128
  %46 = load i8, ptr %45, align 8
  %47 = or i8 %46, 64
  store i8 %47, ptr %45, align 8
  call void @lv_draw_label(ptr noundef %0, ptr noundef nonnull %1, ptr noundef nonnull %6)
  call void @llvm.lifetime.end.p0(i64 8, ptr nonnull %7) #6
  call void @llvm.lifetime.end.p0(i64 16, ptr nonnull %6) #6
  call void @llvm.lifetime.end.p0(i64 48, ptr nonnull %5) #6
  br label %lv_text_is_marker.exit.thread

lv_text_is_marker.exit.thread:                    ; preds = %lv_text_is_marker.exit, %lv_text_is_marker.exit, %17, %16, %16, %16, %11, %4, %36
  ret void
}